target datalayout = "e-m:e-p270:32:32-p271:32:32-p272:64:64-i64:64-i128:128-f80:128-n8:16:32:64-S128"
target triple = "x86_64-pc-linux-gnu"

; Function Attrs: null_pointer_is_valid sspstrong uwtable
define hidden zeroext i1 @ccm_ctr_encrypt(ptr noundef %0, ptr noundef %1, ptr noundef %2, ptr noundef %3, i32 noundef %4) #0 {
  %6 = alloca i1, align 1
  %7 = alloca ptr, align 8
  %8 = alloca ptr, align 8
  %9 = alloca ptr, align 8
  %10 = alloca ptr, align 8
  %11 = alloca i32, align 4
  %12 = alloca ptr, align 8
  %13 = alloca i32, align 4
  store ptr %0, ptr %7, align 8
  store ptr %1, ptr %8, align 8
  store ptr %2, ptr %9, align 8
  store ptr %3, ptr %10, align 8
  store i32 %4, ptr %11, align 4
  call void @llvm.lifetime.start.p0(i64 8, ptr %12) #17
  %14 = call i32 @gcry_cipher_open(ptr noundef %12, i32 noundef 7, i32 noundef 6, i32 noundef 0)
  %15 = icmp ne i32 %14, 0
  br i1 %15, label %16, label %17

16:                                               ; preds = %5
  store i1 false, ptr %6, align 1
  store i32 1, ptr %13, align 4
  br label %49

17:                                               ; preds = %5
  %18 = load ptr, ptr %12, align 8
  %19 = load ptr, ptr %7, align 8
  %20 = call i32 @gcry_cipher_setkey(ptr noundef %18, ptr noundef %19, i64 noundef 16)
  %21 = icmp ne i32 %20, 0
  br i1 %21, label %22, label %24

22:                                               ; preds = %17
  %23 = load ptr, ptr %12, align 8
  call void @gcry_cipher_close(ptr noundef %23)
  store i1 false, ptr %6, align 1
  store i32 1, ptr %13, align 4
  br label %49

24:                                               ; preds = %17
  %25 = load ptr, ptr %12, align 8
  %26 = load ptr, ptr %8, align 8
  %27 = call i32 @gcry_cipher_setctr(ptr noundef %25, ptr noundef %26, i64 noundef 16)
  %28 = icmp ne i32 %27, 0
  br i1 %28, label %29, label %31

29:                                               ; preds = %24
  %30 = load ptr, ptr %12, align 8
  call void @gcry_cipher_close(ptr noundef %30)
  store i1 false, ptr %6, align 1
  store i32 1, ptr %13, align 4
  br label %49

31:                                               ; preds = %24
  %32 = load ptr, ptr %12, align 8
  %33 = load ptr, ptr %9, align 8
  %34 = call i32 @gcry_cipher_encrypt(ptr noundef %32, ptr noundef %33, i64 noundef 16, ptr noundef null, i64 noundef 0)
  %35 = icmp ne i32 %34, 0
  br i1 %35, label %36, label %38

36:                                               ; preds = %31
  %37 = load ptr, ptr %12, align 8
  call void @gcry_cipher_close(ptr noundef %37)
  store i1 false, ptr %6, align 1
  store i32 1, ptr %13, align 4
  br label %49

38:                                               ; preds = %31
  %39 = load ptr, ptr %12, align 8
  %40 = load ptr, ptr %10, align 8
  %41 = load i32, ptr %11, align 4
  %42 = sext i32 %41 to i64
  %43 = call i32 @gcry_cipher_encrypt(ptr noundef %39, ptr noundef %40, i64 noundef %42, ptr noundef null, i64 noundef 0)
  %44 = icmp ne i32 %43, 0
  br i1 %44, label %45, label %47

45:                                               ; preds = %38
  %46 = load ptr, ptr %12, align 8
  call void @gcry_cipher_close(ptr noundef %46)
  store i1 false, ptr %6, align 1
  store i32 1, ptr %13, align 4
  br label %49

47:                                               ; preds = %38
  %48 = load ptr, ptr %12, align 8
  call void @gcry_cipher_close(ptr noundef %48)
  store i1 true, ptr %6, align 1
  store i32 1, ptr %13, align 4
  br label %49

49:                                               ; preds = %47, %45, %36, %29, %22, %16
  call void @llvm.lifetime.end.p0(i64 8, ptr %12) #17
  %50 = load i1, ptr %6, align 1
  ret i1 %50
}