; Function Attrs: null_pointer_is_valid sspstrong uwtable
define hidden zeroext i1 @ccm_ctr_encrypt(ptr noundef %0, ptr noundef %1, ptr noundef %2, ptr noundef %3, i32 noundef %4) local_unnamed_addr #0 {
  %6 = alloca ptr, align 8
  call void @llvm.lifetime.start.p0(i64 8, ptr nonnull %6) #19
  %7 = call i32 @gcry_cipher_open(ptr noundef nonnull %6, i32 noundef 7, i32 noundef 6, i32 noundef 0)
  %.not = icmp eq i32 %7, 0
  br i1 %.not, label %8, label %22

8:                                                ; preds = %5
  %9 = load ptr, ptr %6, align 8
  %10 = call i32 @gcry_cipher_setkey(ptr noundef %9, ptr noundef %0, i64 noundef 16)
  %.not5 = icmp eq i32 %10, 0
  %11 = load ptr, ptr %6, align 8
  br i1 %.not5, label %12, label %.sink.split

12:                                               ; preds = %8
  %13 = call i32 @gcry_cipher_setctr(ptr noundef %11, ptr noundef %1, i64 noundef 16)
  %.not6 = icmp eq i32 %13, 0
  %14 = load ptr, ptr %6, align 8
  br i1 %.not6, label %15, label %.sink.split

15:                                               ; preds = %12
  %16 = call i32 @gcry_cipher_encrypt(ptr noundef %14, ptr noundef %2, i64 noundef 16, ptr noundef null, i64 noundef 0)
  %.not7 = icmp eq i32 %16, 0
  %17 = load ptr, ptr %6, align 8
  br i1 %.not7, label %18, label %.sink.split

18:                                               ; preds = %15
  %19 = sext i32 %4 to i64
  %20 = call i32 @gcry_cipher_encrypt(ptr noundef %17, ptr noundef %3, i64 noundef %19, ptr noundef null, i64 noundef 0)
  %.not8 = icmp eq i32 %20, 0
  %21 = load ptr, ptr %6, align 8
  br label %.sink.split

.sink.split:                                      ; preds = %15, %12, %8, %18
  %.sink = phi ptr [ %21, %18 ], [ %11, %8 ], [ %14, %12 ], [ %17, %15 ]
  %.0.ph = phi i1 [ %.not8, %18 ], [ false, %8 ], [ false, %12 ], [ false, %15 ]
  call void @gcry_cipher_close(ptr noundef %.sink)
  br label %22

22:                                               ; preds = %.sink.split, %5
  %.0 = phi i1 [ false, %5 ], [ %.0.ph, %.sink.split ]
  call void @llvm.lifetime.end.p0(i64 8, ptr nonnull %6) #19
  ret i1 %.0
}